target datalayout = "e-m:e-p270:32:32-p271:32:32-p272:64:64-i64:64-i128:128-f80:128-n8:16:32:64-S128"
target triple = "x86_64-pc-linux-gnu"

%struct.Curl_cftype = type { ptr, i32, i32, ptr, ptr, ptr, ptr, ptr, ptr, ptr, ptr, ptr, ptr, ptr, ptr, ptr }
%struct.curl_trc_feat = type { ptr, i32 }
%struct.trc_cft_def = type { ptr, i32 }
%struct.trc_feat_def = type { ptr, i32 }

@Curl_cstrdup = external global ptr, align 8
@.str.6 = private unnamed_addr constant [3 x i8] c", \00", align 1
@.str.7 = private unnamed_addr constant [4 x i8] c"all\00", align 1
@.str.8 = private unnamed_addr constant [9 x i8] c"protocol\00", align 1
@.str.9 = private unnamed_addr constant [8 x i8] c"network\00", align 1
@.str.10 = private unnamed_addr constant [6 x i8] c"proxy\00", align 1
@Curl_cfree = external global ptr, align 8

; Function Attrs: nounwind uwtable
define internal void @trc_apply_level_by_name(ptr noundef %0, i32 noundef %1) #0 {
  %3 = alloca ptr, align 8
  %4 = alloca i32, align 4
  %5 = alloca i64, align 8
  store ptr %0, ptr %3, align 8, !tbaa !11
  store i32 %1, ptr %4, align 4, !tbaa !9
  call void @llvm.lifetime.start.p0(i64 8, ptr %5) #5
  store i64 0, ptr %5, align 8, !tbaa !13
  br label %6

6:                                                ; preds = %27, %2
  %7 = load i64, ptr %5, align 8, !tbaa !13
  %8 = icmp ult i64 %7, 15
  br i1 %8, label %9, label %30

9:                                                ; preds = %6
  %10 = load ptr, ptr %3, align 8, !tbaa !11
  %11 = load i64, ptr %5, align 8, !tbaa !13
  %12 = getelementptr inbounds nuw [15 x %struct.trc_cft_def], ptr @trc_cfts, i64 0, i64 %11
  %13 = getelementptr inbounds nuw %struct.trc_cft_def, ptr %12, i32 0, i32 0
  %14 = load ptr, ptr %13, align 16, !tbaa !110
  %15 = getelementptr inbounds nuw %struct.Curl_cftype, ptr %14, i32 0, i32 0
  %16 = load ptr, ptr %15, align 8, !tbaa !104
  %17 = call i32 @curl_strequal(ptr noundef %10, ptr noundef %16)
  %18 = icmp ne i32 %17, 0
  br i1 %18, label %19, label %26

19:                                               ; preds = %9
  %20 = load i32, ptr %4, align 4, !tbaa !9
  %21 = load i64, ptr %5, align 8, !tbaa !13
  %22 = getelementptr inbounds nuw [15 x %struct.trc_cft_def], ptr @trc_cfts, i64 0, i64 %21
  %23 = getelementptr inbounds nuw %struct.trc_cft_def, ptr %22, i32 0, i32 0
  %24 = load ptr, ptr %23, align 16, !tbaa !110
  %25 = getelementptr inbounds nuw %struct.Curl_cftype, ptr %24, i32 0, i32 2
  store i32 %20, ptr %25, align 4, !tbaa !101
  br label %30

26:                                               ; preds = %9
  br label %27

27:                                               ; preds = %26
  %28 = load i64, ptr %5, align 8, !tbaa !13
  %29 = add i64 %28, 1
  store i64 %29, ptr %5, align 8, !tbaa !13
  br label %6, !llvm.loop !116

30:                                               ; preds = %19, %6
  store i64 0, ptr %5, align 8, !tbaa !13
  br label %31

31:                                               ; preds = %52, %30
  %32 = load i64, ptr %5, align 8, !tbaa !13
  %33 = icmp ult i64 %32, 5
  br i1 %33, label %34, label %55

34:                                               ; preds = %31
  %35 = load ptr, ptr %3, align 8, !tbaa !11
  %36 = load i64, ptr %5, align 8, !tbaa !13
  %37 = getelementptr inbounds nuw [5 x %struct.trc_feat_def], ptr @trc_feats, i64 0, i64 %36
  %38 = getelementptr inbounds nuw %struct.trc_feat_def, ptr %37, i32 0, i32 0
  %39 = load ptr, ptr %38, align 16, !tbaa !114
  %40 = getelementptr inbounds nuw %struct.curl_trc_feat, ptr %39, i32 0, i32 0
  %41 = load ptr, ptr %40, align 8, !tbaa !95
  %42 = call i32 @curl_strequal(ptr noundef %35, ptr noundef %41)
  %43 = icmp ne i32 %42, 0
  br i1 %43, label %44, label %51

44:                                               ; preds = %34
  %45 = load i32, ptr %4, align 4, !tbaa !9
  %46 = load i64, ptr %5, align 8, !tbaa !13
  %47 = getelementptr inbounds nuw [5 x %struct.trc_feat_def], ptr @trc_feats, i64 0, i64 %46
  %48 = getelementptr inbounds nuw %struct.trc_feat_def, ptr %47, i32 0, i32 0
  %49 = load ptr, ptr %48, align 16, !tbaa !114
  %50 = getelementptr inbounds nuw %struct.curl_trc_feat, ptr %49, i32 0, i32 1
  store i32 %45, ptr %50, align 8, !tbaa !90
  br label %55

51:                                               ; preds = %34
  br label %52

52:                                               ; preds = %51
  %53 = load i64, ptr %5, align 8, !tbaa !13
  %54 = add i64 %53, 1
  store i64 %54, ptr %5, align 8, !tbaa !13
  br label %31, !llvm.loop !117

55:                                               ; preds = %44, %31
  call void @llvm.lifetime.end.p0(i64 8, ptr %5) #5
  ret void
}

; Function Attrs: nounwind uwtable
define internal void @trc_apply_level_by_category(i32 noundef %0, i32 noundef %1) #0 {
  %3 = alloca i32, align 4
  %4 = alloca i32, align 4
  %5 = alloca i64, align 8
  store i32 %0, ptr %3, align 4, !tbaa !9
  store i32 %1, ptr %4, align 4, !tbaa !9
  call void @llvm.lifetime.start.p0(i64 8, ptr %5) #5
  store i64 0, ptr %5, align 8, !tbaa !13
  br label %6

6:                                                ; preds = %28, %2
  %7 = load i64, ptr %5, align 8, !tbaa !13
  %8 = icmp ult i64 %7, 15
  br i1 %8, label %9, label %31

9:                                                ; preds = %6
  %10 = load i32, ptr %3, align 4, !tbaa !9
  %11 = icmp ne i32 %10, 0
  br i1 %11, label %12, label %20

12:                                               ; preds = %9
  %13 = load i64, ptr %5, align 8, !tbaa !13
  %14 = getelementptr inbounds nuw [15 x %struct.trc_cft_def], ptr @trc_cfts, i64 0, i64 %13
  %15 = getelementptr inbounds nuw %struct.trc_cft_def, ptr %14, i32 0, i32 1
  %16 = load i32, ptr %15, align 8, !tbaa !108
  %17 = load i32, ptr %3, align 4, !tbaa !9
  %18 = and i32 %16, %17
  %19 = icmp ne i32 %18, 0
  br i1 %19, label %20, label %27

20:                                               ; preds = %12, %9
  %21 = load i32, ptr %4, align 4, !tbaa !9
  %22 = load i64, ptr %5, align 8, !tbaa !13
  %23 = getelementptr inbounds nuw [15 x %struct.trc_cft_def], ptr @trc_cfts, i64 0, i64 %22
  %24 = getelementptr inbounds nuw %struct.trc_cft_def, ptr %23, i32 0, i32 0
  %25 = load ptr, ptr %24, align 16, !tbaa !110
  %26 = getelementptr inbounds nuw %struct.Curl_cftype, ptr %25, i32 0, i32 2
  store i32 %21, ptr %26, align 4, !tbaa !101
  br label %27

27:                                               ; preds = %20, %12
  br label %28

28:                                               ; preds = %27
  %29 = load i64, ptr %5, align 8, !tbaa !13
  %30 = add i64 %29, 1
  store i64 %30, ptr %5, align 8, !tbaa !13
  br label %6, !llvm.loop !111

31:                                               ; preds = %6
  store i64 0, ptr %5, align 8, !tbaa !13
  br label %32

32:                                               ; preds = %54, %31
  %33 = load i64, ptr %5, align 8, !tbaa !13
  %34 = icmp ult i64 %33, 5
  br i1 %34, label %35, label %57

35:                                               ; preds = %32
  %36 = load i32, ptr %3, align 4, !tbaa !9
  %37 = icmp ne i32 %36, 0
  br i1 %37, label %38, label %46

38:                                               ; preds = %35
  %39 = load i64, ptr %5, align 8, !tbaa !13
  %40 = getelementptr inbounds nuw [5 x %struct.trc_feat_def], ptr @trc_feats, i64 0, i64 %39
  %41 = getelementptr inbounds nuw %struct.trc_feat_def, ptr %40, i32 0, i32 1
  %42 = load i32, ptr %41, align 8, !tbaa !112
  %43 = load i32, ptr %3, align 4, !tbaa !9
  %44 = and i32 %42, %43
  %45 = icmp ne i32 %44, 0
  br i1 %45, label %46, label %53

46:                                               ; preds = %38, %35
  %47 = load i32, ptr %4, align 4, !tbaa !9
  %48 = load i64, ptr %5, align 8, !tbaa !13
  %49 = getelementptr inbounds nuw [5 x %struct.trc_feat_def], ptr @trc_feats, i64 0, i64 %48
  %50 = getelementptr inbounds nuw %struct.trc_feat_def, ptr %49, i32 0, i32 0
  %51 = load ptr, ptr %50, align 16, !tbaa !114
  %52 = getelementptr inbounds nuw %struct.curl_trc_feat, ptr %51, i32 0, i32 1
  store i32 %47, ptr %52, align 8, !tbaa !90
  br label %53

53:                                               ; preds = %46, %38
  br label %54

54:                                               ; preds = %53
  %55 = load i64, ptr %5, align 8, !tbaa !13
  %56 = add i64 %55, 1
  store i64 %56, ptr %5, align 8, !tbaa !13
  br label %32, !llvm.loop !115

57:                                               ; preds = %32
  call void @llvm.lifetime.end.p0(i64 8, ptr %5) #5
  ret void
}

; Function Attrs: nounwind uwtable
define internal i32 @trc_opt(ptr noundef %0) #0 {
  %2 = alloca i32, align 4
  %3 = alloca ptr, align 8
  %4 = alloca ptr, align 8
  %5 = alloca ptr, align 8
  %6 = alloca ptr, align 8
  %7 = alloca i32, align 4
  %8 = alloca i32, align 4
  store ptr %0, ptr %3, align 8, !tbaa !11
  call void @llvm.lifetime.start.p0(i64 8, ptr %4) #5
  call void @llvm.lifetime.start.p0(i64 8, ptr %5) #5
  call void @llvm.lifetime.start.p0(i64 8, ptr %6) #5
  call void @llvm.lifetime.start.p0(i64 4, ptr %7) #5
  %9 = load ptr, ptr @Curl_cstrdup, align 8, !tbaa !105
  %10 = load ptr, ptr %3, align 8, !tbaa !11
  %11 = call ptr %9(ptr noundef %10)
  store ptr %11, ptr %6, align 8, !tbaa !11
  %12 = load ptr, ptr %6, align 8, !tbaa !11
  %13 = icmp ne ptr %12, null
  br i1 %13, label %15, label %14

14:                                               ; preds = %1
  store i32 27, ptr %2, align 4
  store i32 1, ptr %8, align 4
  br label %67

15:                                               ; preds = %1
  %16 = load ptr, ptr %6, align 8, !tbaa !11
  %17 = call ptr @strtok_r(ptr noundef %16, ptr noundef @.str.6, ptr noundef %5) #5
  store ptr %17, ptr %4, align 8, !tbaa !11
  br label %18

18:                                               ; preds = %62, %15
  %19 = load ptr, ptr %4, align 8, !tbaa !11
  %20 = icmp ne ptr %19, null
  br i1 %20, label %21, label %64

21:                                               ; preds = %18
  %22 = load ptr, ptr %4, align 8, !tbaa !11
  %23 = load i8, ptr %22, align 1, !tbaa !88
  %24 = sext i8 %23 to i32
  switch i32 %24, label %31 [
    i32 45, label %25
    i32 43, label %28
  ]

25:                                               ; preds = %21
  store i32 0, ptr %7, align 4, !tbaa !9
  %26 = load ptr, ptr %4, align 8, !tbaa !11
  %27 = getelementptr inbounds nuw i8, ptr %26, i32 1
  store ptr %27, ptr %4, align 8, !tbaa !11
  br label %32

28:                                               ; preds = %21
  store i32 1, ptr %7, align 4, !tbaa !9
  %29 = load ptr, ptr %4, align 8, !tbaa !11
  %30 = getelementptr inbounds nuw i8, ptr %29, i32 1
  store ptr %30, ptr %4, align 8, !tbaa !11
  br label %32

31:                                               ; preds = %21
  store i32 1, ptr %7, align 4, !tbaa !9
  br label %32

32:                                               ; preds = %31, %28, %25
  %33 = load ptr, ptr %4, align 8, !tbaa !11
  %34 = call i32 @curl_strequal(ptr noundef %33, ptr noundef @.str.7)
  %35 = icmp ne i32 %34, 0
  br i1 %35, label %36, label %38

36:                                               ; preds = %32
  %37 = load i32, ptr %7, align 4, !tbaa !9
  call void @trc_apply_level_by_category(i32 noundef 0, i32 noundef %37)
  br label %62

38:                                               ; preds = %32
  %39 = load ptr, ptr %4, align 8, !tbaa !11
  %40 = call i32 @curl_strequal(ptr noundef %39, ptr noundef @.str.8)
  %41 = icmp ne i32 %40, 0
  br i1 %41, label %42, label %44

42:                                               ; preds = %38
  %43 = load i32, ptr %7, align 4, !tbaa !9
  call void @trc_apply_level_by_category(i32 noundef 1, i32 noundef %43)
  br label %61

44:                                               ; preds = %38
  %45 = load ptr, ptr %4, align 8, !tbaa !11
  %46 = call i32 @curl_strequal(ptr noundef %45, ptr noundef @.str.9)
  %47 = icmp ne i32 %46, 0
  br i1 %47, label %48, label %50

48:                                               ; preds = %44
  %49 = load i32, ptr %7, align 4, !tbaa !9
  call void @trc_apply_level_by_category(i32 noundef 2, i32 noundef %49)
  br label %60

50:                                               ; preds = %44
  %51 = load ptr, ptr %4, align 8, !tbaa !11
  %52 = call i32 @curl_strequal(ptr noundef %51, ptr noundef @.str.10)
  %53 = icmp ne i32 %52, 0
  br i1 %53, label %54, label %56

54:                                               ; preds = %50
  %55 = load i32, ptr %7, align 4, !tbaa !9
  call void @trc_apply_level_by_category(i32 noundef 4, i32 noundef %55)
  br label %59

56:                                               ; preds = %50
  %57 = load ptr, ptr %4, align 8, !tbaa !11
  %58 = load i32, ptr %7, align 4, !tbaa !9
  call void @trc_apply_level_by_name(ptr noundef %57, i32 noundef %58)
  br label %59

59:                                               ; preds = %56, %54
  br label %60

60:                                               ; preds = %59, %48
  br label %61

61:                                               ; preds = %60, %42
  br label %62

62:                                               ; preds = %61, %36
  %63 = call ptr @strtok_r(ptr noundef null, ptr noundef @.str.6, ptr noundef %5) #5
  store ptr %63, ptr %4, align 8, !tbaa !11
  br label %18, !llvm.loop !106

64:                                               ; preds = %18
  %65 = load ptr, ptr @Curl_cfree, align 8, !tbaa !105
  %66 = load ptr, ptr %6, align 8, !tbaa !11
  call void %65(ptr noundef %66)
  store i32 0, ptr %2, align 4
  store i32 1, ptr %8, align 4
  br label %67

67:                                               ; preds = %64, %14
  call void @llvm.lifetime.end.p0(i64 4, ptr %7) #5
  call void @llvm.lifetime.end.p0(i64 8, ptr %6) #5
  call void @llvm.lifetime.end.p0(i64 8, ptr %5) #5
  call void @llvm.lifetime.end.p0(i64 8, ptr %4) #5
  %68 = load i32, ptr %2, align 4
  ret i32 %68
}

; Function Attrs: nounwind uwtable
define dso_local i32 @Curl_trc_opt(ptr noundef %0) #0 {
  %2 = alloca ptr, align 8
  %3 = alloca i32, align 4
  store ptr %0, ptr %2, align 8, !tbaa !11
  call void @llvm.lifetime.start.p0(i64 4, ptr %3) #5
  %4 = load ptr, ptr %2, align 8, !tbaa !11
  %5 = icmp ne ptr %4, null
  br i1 %5, label %6, label %9

6:                                                ; preds = %1
  %7 = load ptr, ptr %2, align 8, !tbaa !11
  %8 = call i32 @trc_opt(ptr noundef %7)
  br label %10

9:                                                ; preds = %1
  br label %10

10:                                               ; preds = %9, %6
  %11 = phi i32 [ %8, %6 ], [ 0, %9 ]
  store i32 %11, ptr %3, align 4, !tbaa !9
  %12 = load i32, ptr %3, align 4, !tbaa !9
  call void @llvm.lifetime.end.p0(i64 4, ptr %3) #5
  ret i32 %12
}